; ModuleID = '23/1080.c'
source_filename = "23/1080.c"
target datalayout = "e-m:e-p270:32:32-p271:32:32-p272:64:64-i64:64-f80:128-n8:16:32:64-S128"
target triple = "x86_64-pc-linux-gnu"

@.str = private unnamed_addr constant [3 x i8] c"%c\00", align 1

; Function Attrs: noinline nounwind uwtable
define dso_local void @main() #0 {
  %1 = alloca [100 x i8], align 16
  %2 = alloca [101 x i8], align 16
  %3 = alloca [101 x i8], align 16
  %4 = alloca i32, align 4
  %5 = alloca i32, align 4
  %6 = alloca i32, align 4
  %7 = alloca i32, align 4
  %8 = alloca i32, align 4
  %9 = alloca i32, align 4
  %10 = alloca [100 x i32], align 16
  %11 = alloca i8, align 1
  %12 = bitcast [101 x i8]* %2 to i8*
  call void @llvm.memset.p0i8.i64(i8* align 16 %12, i8 0, i64 101, i1 false)
  %13 = bitcast i8* %12 to [101 x i8]*
  %14 = getelementptr inbounds [101 x i8], [101 x i8]* %13, i32 0, i32 0
  store i8 32, i8* %14, align 16
  %15 = bitcast [101 x i8]* %3 to i8*
  call void @llvm.memset.p0i8.i64(i8* align 16 %15, i8 0, i64 101, i1 false)
  store i32 1, i32* %6, align 4
  store i32 0, i32* %8, align 4
  %16 = getelementptr inbounds [100 x i8], [100 x i8]* %1, i64 0, i64 0
  %17 = call i32 (i8*, ...) bitcast (i32 (...)* @gets to i32 (i8*, ...)*)(i8* %16)
  %18 = getelementptr inbounds [101 x i8], [101 x i8]* %2, i64 0, i64 0
  %19 = getelementptr inbounds [100 x i8], [100 x i8]* %1, i64 0, i64 0
  %20 = call i8* @strcat(i8* %18, i8* %19) #5
  %21 = getelementptr inbounds [101 x i8], [101 x i8]* %2, i64 0, i64 0
  %22 = call i64 @strlen(i8* %21) #6
  %23 = trunc i64 %22 to i32
  store i32 %23, i32* %5, align 4
  %24 = load i32, i32* %5, align 4
  %25 = sub nsw i32 %24, 1
  store i32 %25, i32* %4, align 4
  br label %26

26:                                               ; preds = %45, %0
  %27 = load i32, i32* %4, align 4
  %28 = icmp sge i32 %27, 0
  br i1 %28, label %29, label %48

29:                                               ; preds = %26
  %30 = load i32, i32* %4, align 4
  %31 = sext i32 %30 to i64
  %32 = getelementptr inbounds [101 x i8], [101 x i8]* %2, i64 0, i64 %31
  %33 = load i8, i8* %32, align 1
  store i8 %33, i8* %11, align 1
  %34 = sext i8 %33 to i32
  %35 = icmp eq i32 %34, 32
  br i1 %35, label %36, label %43

36:                                               ; preds = %29
  %37 = load i32, i32* %4, align 4
  %38 = load i32, i32* %6, align 4
  %39 = sext i32 %38 to i64
  %40 = getelementptr inbounds [100 x i32], [100 x i32]* %10, i64 0, i64 %39
  store i32 %37, i32* %40, align 4
  %41 = load i32, i32* %6, align 4
  %42 = add nsw i32 %41, 1
  store i32 %42, i32* %6, align 4
  br label %44

43:                                               ; preds = %29
  br label %45

44:                                               ; preds = %36
  br label %45

45:                                               ; preds = %44, %43
  %46 = load i32, i32* %4, align 4
  %47 = add nsw i32 %46, -1
  store i32 %47, i32* %4, align 4
  br label %26

48:                                               ; preds = %26
  %49 = load i32, i32* %5, align 4
  %50 = getelementptr inbounds [100 x i32], [100 x i32]* %10, i64 0, i64 0
  store i32 %49, i32* %50, align 16
  store i32 0, i32* %4, align 4
  br label %51

51:                                               ; preds = %83, %48
  %52 = load i32, i32* %4, align 4
  %53 = load i32, i32* %6, align 4
  %54 = sub nsw i32 %53, 1
  %55 = icmp slt i32 %52, %54
  br i1 %55, label %56, label %86

56:                                               ; preds = %51
  %57 = load i32, i32* %4, align 4
  %58 = add nsw i32 %57, 1
  %59 = sext i32 %58 to i64
  %60 = getelementptr inbounds [100 x i32], [100 x i32]* %10, i64 0, i64 %59
  %61 = load i32, i32* %60, align 4
  store i32 %61, i32* %7, align 4
  br label %62

62:                                               ; preds = %79, %56
  %63 = load i32, i32* %7, align 4
  %64 = load i32, i32* %4, align 4
  %65 = sext i32 %64 to i64
  %66 = getelementptr inbounds [100 x i32], [100 x i32]* %10, i64 0, i64 %65
  %67 = load i32, i32* %66, align 4
  %68 = icmp slt i32 %63, %67
  br i1 %68, label %69, label %82

69:                                               ; preds = %62
  %70 = load i32, i32* %7, align 4
  %71 = sext i32 %70 to i64
  %72 = getelementptr inbounds [101 x i8], [101 x i8]* %2, i64 0, i64 %71
  %73 = load i8, i8* %72, align 1
  %74 = load i32, i32* %8, align 4
  %75 = sext i32 %74 to i64
  %76 = getelementptr inbounds [101 x i8], [101 x i8]* %3, i64 0, i64 %75
  store i8 %73, i8* %76, align 1
  %77 = load i32, i32* %8, align 4
  %78 = add nsw i32 %77, 1
  store i32 %78, i32* %8, align 4
  br label %79

79:                                               ; preds = %69
  %80 = load i32, i32* %7, align 4
  %81 = add nsw i32 %80, 1
  store i32 %81, i32* %7, align 4
  br label %62

82:                                               ; preds = %62
  br label %83

83:                                               ; preds = %82
  %84 = load i32, i32* %4, align 4
  %85 = add nsw i32 %84, 1
  store i32 %85, i32* %4, align 4
  br label %51

86:                                               ; preds = %51
  %87 = getelementptr inbounds [101 x i8], [101 x i8]* %3, i64 0, i64 0
  %88 = call i64 @strlen(i8* %87) #6
  %89 = trunc i64 %88 to i32
  store i32 %89, i32* %9, align 4
  store i32 1, i32* %4, align 4
  br label %90

90:                                               ; preds = %101, %86
  %91 = load i32, i32* %4, align 4
  %92 = load i32, i32* %9, align 4
  %93 = icmp slt i32 %91, %92
  br i1 %93, label %94, label %104

94:                                               ; preds = %90
  %95 = load i32, i32* %4, align 4
  %96 = sext i32 %95 to i64
  %97 = getelementptr inbounds [101 x i8], [101 x i8]* %3, i64 0, i64 %96
  %98 = load i8, i8* %97, align 1
  %99 = sext i8 %98 to i32
  %100 = call i32 (i8*, ...) @printf(i8* getelementptr inbounds ([3 x i8], [3 x i8]* @.str, i64 0, i64 0), i32 %99)
  br label %101

101:                                              ; preds = %94
  %102 = load i32, i32* %4, align 4
  %103 = add nsw i32 %102, 1
  store i32 %103, i32* %4, align 4
  br label %90

104:                                              ; preds = %90
  ret void
}

; Function Attrs: argmemonly nounwind willreturn
declare void @llvm.memset.p0i8.i64(i8* nocapture writeonly, i8, i64, i1 immarg) #1

declare dso_local i32 @gets(...) #2

; Function Attrs: nounwind
declare dso_local i8* @strcat(i8*, i8*) #3

; Function Attrs: nounwind readonly
declare dso_local i64 @strlen(i8*) #4

declare dso_local i32 @printf(i8*, ...) #2


!llvm.module.flags = !{!0}
!llvm.ident = !{!1}

!0 = !{i32 1, !"wchar_size", i32 4}
!1 = !{!"clang version 10.0.0-4ubuntu1 "}
